; ModuleID = '41/687.cpp'
source_filename = "41/687.cpp"
target datalayout = "e-m:e-p270:32:32-p271:32:32-p272:64:64-i64:64-f80:128-n8:16:32:64-S128"
target triple = "x86_64-pc-linux-gnu"

%"class.std::ios_base::Init" = type { i8 }
%"class.std::basic_ostream" = type { i32 (...)**, %"class.std::basic_ios" }
%"class.std::basic_ios" = type { %"class.std::ios_base", %"class.std::basic_ostream"*, i8, i8, %"class.std::basic_streambuf"*, %"class.std::ctype"*, %"class.std::num_put"*, %"class.std::num_get"* }
%"class.std::ios_base" = type { i32 (...)**, i64, i64, i32, i32, i32, %"struct.std::ios_base::_Callback_list"*, %"struct.std::ios_base::_Words", [8 x %"struct.std::ios_base::_Words"], i32, %"struct.std::ios_base::_Words"*, %"class.std::locale" }
%"struct.std::ios_base::_Callback_list" = type { %"struct.std::ios_base::_Callback_list"*, void (i32, %"class.std::ios_base"*, i32)*, i32, i32 }
%"struct.std::ios_base::_Words" = type { i8*, i64 }
%"class.std::locale" = type { %"class.std::locale::_Impl"* }
%"class.std::locale::_Impl" = type { i32, %"class.std::locale::facet"**, i64, %"class.std::locale::facet"**, i8** }
%"class.std::locale::facet" = type <{ i32 (...)**, i32, [4 x i8] }>
%"class.std::basic_streambuf" = type { i32 (...)**, i8*, i8*, i8*, i8*, i8*, i8*, %"class.std::locale" }
%"class.std::ctype" = type <{ %"class.std::locale::facet.base", [4 x i8], %struct.__locale_struct*, i8, [7 x i8], i32*, i32*, i16*, i8, [256 x i8], [256 x i8], i8, [6 x i8] }>
%"class.std::locale::facet.base" = type <{ i32 (...)**, i32 }>
%struct.__locale_struct = type { [13 x %struct.__locale_data*], i16*, i32*, i32*, [13 x i8*] }
%struct.__locale_data = type opaque
%"class.std::num_put" = type { %"class.std::locale::facet.base", [4 x i8] }
%"class.std::num_get" = type { %"class.std::locale::facet.base", [4 x i8] }

@_ZStL8__ioinit = internal global %"class.std::ios_base::Init" zeroinitializer, align 1
@__dso_handle = external hidden global i8
@_ZSt4cout = external dso_local global %"class.std::basic_ostream", align 8
@llvm.global_ctors = appending global [1 x { i32, void ()*, i8* }] [{ i32, void ()*, i8* } { i32 65535, void ()* @_GLOBAL__sub_I_687.cpp, i8* null }]

; Function Attrs: noinline uwtable
define internal void @__cxx_global_var_init() #0 section ".text.startup" {
  call void @_ZNSt8ios_base4InitC1Ev(%"class.std::ios_base::Init"* @_ZStL8__ioinit)
  %1 = call i32 @__cxa_atexit(void (i8*)* bitcast (void (%"class.std::ios_base::Init"*)* @_ZNSt8ios_base4InitD1Ev to void (i8*)*), i8* getelementptr inbounds (%"class.std::ios_base::Init", %"class.std::ios_base::Init"* @_ZStL8__ioinit, i32 0, i32 0), i8* @__dso_handle) #3
  ret void
}

declare dso_local void @_ZNSt8ios_base4InitC1Ev(%"class.std::ios_base::Init"*) unnamed_addr #1

; Function Attrs: nounwind
declare dso_local void @_ZNSt8ios_base4InitD1Ev(%"class.std::ios_base::Init"*) unnamed_addr #2

; Function Attrs: nounwind
declare dso_local i32 @__cxa_atexit(void (i8*)*, i8*, i8*) #3

; Function Attrs: noinline norecurse uwtable
define dso_local i32 @main() #4 {
  %1 = alloca i32, align 4
  %2 = alloca [6 x i32], align 16
  %3 = alloca i32, align 4
  %4 = alloca i32, align 4
  %5 = alloca i32, align 4
  %6 = alloca i32, align 4
  %7 = alloca i32, align 4
  %8 = alloca i32, align 4
  %9 = alloca i32, align 4
  %10 = alloca i32, align 4
  %11 = alloca i32, align 4
  %12 = alloca i32, align 4
  %13 = alloca i32, align 4
  %14 = alloca i32, align 4
  %15 = alloca i32, align 4
  store i32 0, i32* %1, align 4
  %16 = bitcast [6 x i32]* %2 to i8*
  call void @llvm.memset.p0i8.i64(i8* align 16 %16, i8 0, i64 24, i1 false)
  store i32 1, i32* %3, align 4
  br label %17

17:                                               ; preds = %173, %0
  %18 = load i32, i32* %3, align 4
  %19 = icmp sle i32 %18, 5
  br i1 %19, label %20, label %176

20:                                               ; preds = %17
  store i32 1, i32* %4, align 4
  br label %21

21:                                               ; preds = %169, %20
  %22 = load i32, i32* %4, align 4
  %23 = icmp sle i32 %22, 5
  br i1 %23, label %24, label %172

24:                                               ; preds = %21
  %25 = load i32, i32* %4, align 4
  %26 = load i32, i32* %3, align 4
  %27 = icmp eq i32 %25, %26
  br i1 %27, label %28, label %29

28:                                               ; preds = %24
  br label %169

29:                                               ; preds = %24
  store i32 1, i32* %5, align 4
  br label %30

30:                                               ; preds = %165, %29
  %31 = load i32, i32* %5, align 4
  %32 = icmp sle i32 %31, 5
  br i1 %32, label %33, label %168

33:                                               ; preds = %30
  %34 = load i32, i32* %5, align 4
  %35 = load i32, i32* %3, align 4
  %36 = icmp eq i32 %34, %35
  br i1 %36, label %41, label %37

37:                                               ; preds = %33
  %38 = load i32, i32* %5, align 4
  %39 = load i32, i32* %4, align 4
  %40 = icmp eq i32 %38, %39
  br i1 %40, label %41, label %42

41:                                               ; preds = %37, %33
  br label %165

42:                                               ; preds = %37
  store i32 1, i32* %6, align 4
  br label %43

43:                                               ; preds = %161, %42
  %44 = load i32, i32* %6, align 4
  %45 = icmp sle i32 %44, 5
  br i1 %45, label %46, label %164

46:                                               ; preds = %43
  %47 = load i32, i32* %6, align 4
  %48 = load i32, i32* %3, align 4
  %49 = icmp eq i32 %47, %48
  br i1 %49, label %58, label %50

50:                                               ; preds = %46
  %51 = load i32, i32* %6, align 4
  %52 = load i32, i32* %4, align 4
  %53 = icmp eq i32 %51, %52
  br i1 %53, label %58, label %54

54:                                               ; preds = %50
  %55 = load i32, i32* %6, align 4
  %56 = load i32, i32* %5, align 4
  %57 = icmp eq i32 %55, %56
  br i1 %57, label %58, label %59

58:                                               ; preds = %54, %50, %46
  br label %161

59:                                               ; preds = %54
  store i32 1, i32* %7, align 4
  br label %60

60:                                               ; preds = %157, %59
  %61 = load i32, i32* %7, align 4
  %62 = icmp sle i32 %61, 5
  br i1 %62, label %63, label %160

63:                                               ; preds = %60
  %64 = load i32, i32* %7, align 4
  %65 = load i32, i32* %3, align 4
  %66 = icmp eq i32 %64, %65
  br i1 %66, label %79, label %67

67:                                               ; preds = %63
  %68 = load i32, i32* %7, align 4
  %69 = load i32, i32* %4, align 4
  %70 = icmp eq i32 %68, %69
  br i1 %70, label %79, label %71

71:                                               ; preds = %67
  %72 = load i32, i32* %7, align 4
  %73 = load i32, i32* %5, align 4
  %74 = icmp eq i32 %72, %73
  br i1 %74, label %79, label %75

75:                                               ; preds = %71
  %76 = load i32, i32* %7, align 4
  %77 = load i32, i32* %6, align 4
  %78 = icmp eq i32 %76, %77
  br i1 %78, label %79, label %80

79:                                               ; preds = %75, %71, %67, %63
  br label %157

80:                                               ; preds = %75
  %81 = load i32, i32* %7, align 4
  %82 = icmp ne i32 %81, 2
  br i1 %82, label %83, label %86

83:                                               ; preds = %80
  %84 = load i32, i32* %7, align 4
  %85 = icmp ne i32 %84, 3
  br label %86

86:                                               ; preds = %83, %80
  %87 = phi i1 [ false, %80 ], [ %85, %83 ]
  %88 = zext i1 %87 to i32
  store i32 %88, i32* %13, align 4
  %89 = load i32, i32* %7, align 4
  %90 = icmp eq i32 %89, 1
  %91 = zext i1 %90 to i32
  %92 = load i32, i32* %3, align 4
  %93 = sext i32 %92 to i64
  %94 = getelementptr inbounds [6 x i32], [6 x i32]* %2, i64 0, i64 %93
  store i32 %91, i32* %94, align 4
  %95 = load i32, i32* %4, align 4
  %96 = icmp eq i32 %95, 2
  %97 = zext i1 %96 to i32
  %98 = load i32, i32* %4, align 4
  %99 = sext i32 %98 to i64
  %100 = getelementptr inbounds [6 x i32], [6 x i32]* %2, i64 0, i64 %99
  store i32 %97, i32* %100, align 4
  %101 = load i32, i32* %3, align 4
  %102 = icmp eq i32 %101, 5
  %103 = zext i1 %102 to i32
  %104 = load i32, i32* %5, align 4
  %105 = sext i32 %104 to i64
  %106 = getelementptr inbounds [6 x i32], [6 x i32]* %2, i64 0, i64 %105
  store i32 %103, i32* %106, align 4
  %107 = load i32, i32* %5, align 4
  %108 = icmp ne i32 %107, 1
  %109 = zext i1 %108 to i32
  %110 = load i32, i32* %6, align 4
  %111 = sext i32 %110 to i64
  %112 = getelementptr inbounds [6 x i32], [6 x i32]* %2, i64 0, i64 %111
  store i32 %109, i32* %112, align 4
  %113 = load i32, i32* %6, align 4
  %114 = icmp eq i32 %113, 1
  %115 = zext i1 %114 to i32
  %116 = load i32, i32* %7, align 4
  %117 = sext i32 %116 to i64
  %118 = getelementptr inbounds [6 x i32], [6 x i32]* %2, i64 0, i64 %117
  store i32 %115, i32* %118, align 4
  %119 = getelementptr inbounds [6 x i32], [6 x i32]* %2, i64 0, i64 1
  %120 = load i32, i32* %119, align 4
  %121 = icmp eq i32 %120, 1
  br i1 %121, label %122, label %156

122:                                              ; preds = %86
  %123 = load i32, i32* %13, align 4
  %124 = icmp eq i32 %123, 1
  br i1 %124, label %125, label %156

125:                                              ; preds = %122
  %126 = getelementptr inbounds [6 x i32], [6 x i32]* %2, i64 0, i64 2
  %127 = load i32, i32* %126, align 8
  %128 = icmp eq i32 %127, 1
  br i1 %128, label %129, label %156

129:                                              ; preds = %125
  %130 = getelementptr inbounds [6 x i32], [6 x i32]* %2, i64 0, i64 3
  %131 = load i32, i32* %130, align 4
  %132 = icmp eq i32 %131, 0
  br i1 %132, label %133, label %156

133:                                              ; preds = %129
  %134 = getelementptr inbounds [6 x i32], [6 x i32]* %2, i64 0, i64 4
  %135 = load i32, i32* %134, align 16
  %136 = icmp eq i32 %135, 0
  br i1 %136, label %137, label %156

137:                                              ; preds = %133
  %138 = getelementptr inbounds [6 x i32], [6 x i32]* %2, i64 0, i64 5
  %139 = load i32, i32* %138, align 4
  %140 = icmp eq i32 %139, 0
  br i1 %140, label %141, label %156

141:                                              ; preds = %137
  %142 = load i32, i32* %3, align 4
  %143 = call dereferenceable(272) %"class.std::basic_ostream"* @_ZNSolsEi(%"class.std::basic_ostream"* @_ZSt4cout, i32 %142)
  %144 = call dereferenceable(272) %"class.std::basic_ostream"* @_ZStlsISt11char_traitsIcEERSt13basic_ostreamIcT_ES5_c(%"class.std::basic_ostream"* dereferenceable(272) %143, i8 signext 32)
  %145 = load i32, i32* %4, align 4
  %146 = call dereferenceable(272) %"class.std::basic_ostream"* @_ZNSolsEi(%"class.std::basic_ostream"* %144, i32 %145)
  %147 = call dereferenceable(272) %"class.std::basic_ostream"* @_ZStlsISt11char_traitsIcEERSt13basic_ostreamIcT_ES5_c(%"class.std::basic_ostream"* dereferenceable(272) %146, i8 signext 32)
  %148 = load i32, i32* %5, align 4
  %149 = call dereferenceable(272) %"class.std::basic_ostream"* @_ZNSolsEi(%"class.std::basic_ostream"* %147, i32 %148)
  %150 = call dereferenceable(272) %"class.std::basic_ostream"* @_ZStlsISt11char_traitsIcEERSt13basic_ostreamIcT_ES5_c(%"class.std::basic_ostream"* dereferenceable(272) %149, i8 signext 32)
  %151 = load i32, i32* %6, align 4
  %152 = call dereferenceable(272) %"class.std::basic_ostream"* @_ZNSolsEi(%"class.std::basic_ostream"* %150, i32 %151)
  %153 = call dereferenceable(272) %"class.std::basic_ostream"* @_ZStlsISt11char_traitsIcEERSt13basic_ostreamIcT_ES5_c(%"class.std::basic_ostream"* dereferenceable(272) %152, i8 signext 32)
  %154 = load i32, i32* %7, align 4
  %155 = call dereferenceable(272) %"class.std::basic_ostream"* @_ZNSolsEi(%"class.std::basic_ostream"* %153, i32 %154)
  br label %156

156:                                              ; preds = %141, %137, %133, %129, %125, %122, %86
  br label %157

157:                                              ; preds = %156, %79
  %158 = load i32, i32* %7, align 4
  %159 = add nsw i32 %158, 1
  store i32 %159, i32* %7, align 4
  br label %60

160:                                              ; preds = %60
  br label %161

161:                                              ; preds = %160, %58
  %162 = load i32, i32* %6, align 4
  %163 = add nsw i32 %162, 1
  store i32 %163, i32* %6, align 4
  br label %43

164:                                              ; preds = %43
  br label %165

165:                                              ; preds = %164, %41
  %166 = load i32, i32* %5, align 4
  %167 = add nsw i32 %166, 1
  store i32 %167, i32* %5, align 4
  br label %30

168:                                              ; preds = %30
  br label %169

169:                                              ; preds = %168, %28
  %170 = load i32, i32* %4, align 4
  %171 = add nsw i32 %170, 1
  store i32 %171, i32* %4, align 4
  br label %21

172:                                              ; preds = %21
  br label %173

173:                                              ; preds = %172
  %174 = load i32, i32* %3, align 4
  %175 = add nsw i32 %174, 1
  store i32 %175, i32* %3, align 4
  br label %17

176:                                              ; preds = %17
  ret i32 0
}

; Function Attrs: argmemonly nounwind willreturn
declare void @llvm.memset.p0i8.i64(i8* nocapture writeonly, i8, i64, i1 immarg) #5

declare dso_local dereferenceable(272) %"class.std::basic_ostream"* @_ZStlsISt11char_traitsIcEERSt13basic_ostreamIcT_ES5_c(%"class.std::basic_ostream"* dereferenceable(272), i8 signext) #1

declare dso_local dereferenceable(272) %"class.std::basic_ostream"* @_ZNSolsEi(%"class.std::basic_ostream"*, i32) #1

; Function Attrs: noinline uwtable
define internal void @_GLOBAL__sub_I_687.cpp() #0 section ".text.startup" {
  call void @__cxx_global_var_init()
  ret void
}


!llvm.module.flags = !{!0}
!llvm.ident = !{!1}

!0 = !{i32 1, !"wchar_size", i32 4}
!1 = !{!"clang version 10.0.0-4ubuntu1 "}
